target datalayout = "e-m:e-p270:32:32-p271:32:32-p272:64:64-i64:64-i128:128-f80:128-n8:16:32:64-S128"
target triple = "x86_64-pc-linux-gnu"

%"class.casadi::Slice" = type { i64, i64, i64 }

@.str.22 = private unnamed_addr constant [2 x i8] c":\00", align 1

; Function Attrs: mustprogress nounwind uwtable
define linkonce_odr hidden noundef i64 @_ZNSt14numeric_limitsIxE3maxEv() #4 comdat align 2 {
  ret i64 9223372036854775807
}

; Function Attrs: mustprogress uwtable
define void @_ZNK6casadi5Slice4dispERSob(ptr noundef nonnull align 8 dereferenceable(24) %0, ptr noundef nonnull align 8 dereferenceable(8) %1, i1 noundef zeroext %2) #5 align 2 {
  %4 = alloca ptr, align 8
  %5 = alloca ptr, align 8
  %6 = alloca i8, align 1
  %7 = alloca i8, align 1
  %8 = alloca i8, align 1
  %9 = alloca i8, align 1
  store ptr %0, ptr %4, align 8
  store ptr %1, ptr %5, align 8
  %10 = zext i1 %2 to i8
  store i8 %10, ptr %6, align 1
  %11 = load ptr, ptr %4, align 8
  %12 = getelementptr inbounds %"class.casadi::Slice", ptr %11, i32 0, i32 0
  %13 = load i64, ptr %12, align 8
  %14 = icmp eq i64 %13, 0
  %15 = zext i1 %14 to i8
  store i8 %15, ptr %7, align 1
  %16 = getelementptr inbounds %"class.casadi::Slice", ptr %11, i32 0, i32 1
  %17 = load i64, ptr %16, align 8
  %18 = call noundef i64 @_ZNSt14numeric_limitsIxE3maxEv() #3
  %19 = icmp eq i64 %17, %18
  %20 = zext i1 %19 to i8
  store i8 %20, ptr %8, align 1
  %21 = getelementptr inbounds %"class.casadi::Slice", ptr %11, i32 0, i32 2
  %22 = load i64, ptr %21, align 8
  %23 = icmp eq i64 %22, 1
  %24 = zext i1 %23 to i8
  store i8 %24, ptr %9, align 1
  %25 = getelementptr inbounds %"class.casadi::Slice", ptr %11, i32 0, i32 1
  %26 = load i64, ptr %25, align 8
  %27 = getelementptr inbounds %"class.casadi::Slice", ptr %11, i32 0, i32 0
  %28 = load i64, ptr %27, align 8
  %29 = add nsw i64 %28, 1
  %30 = icmp eq i64 %26, %29
  br i1 %30, label %31, label %36

31:                                               ; preds = %3
  %32 = load ptr, ptr %5, align 8
  %33 = getelementptr inbounds %"class.casadi::Slice", ptr %11, i32 0, i32 0
  %34 = load i64, ptr %33, align 8
  %35 = call noundef nonnull align 8 dereferenceable(8) ptr @_ZNSolsEx(ptr noundef nonnull align 8 dereferenceable(8) %32, i64 noundef %34)
  br label %64

36:                                               ; preds = %3
  %37 = load i8, ptr %7, align 1
  %38 = trunc i8 %37 to i1
  br i1 %38, label %44, label %39

39:                                               ; preds = %36
  %40 = load ptr, ptr %5, align 8
  %41 = getelementptr inbounds %"class.casadi::Slice", ptr %11, i32 0, i32 0
  %42 = load i64, ptr %41, align 8
  %43 = call noundef nonnull align 8 dereferenceable(8) ptr @_ZNSolsEx(ptr noundef nonnull align 8 dereferenceable(8) %40, i64 noundef %42)
  br label %44

44:                                               ; preds = %39, %36
  %45 = load ptr, ptr %5, align 8
  %46 = call noundef nonnull align 8 dereferenceable(8) ptr @_ZStlsISt11char_traitsIcEERSt13basic_ostreamIcT_ES5_PKc(ptr noundef nonnull align 8 dereferenceable(8) %45, ptr noundef @.str.22)
  %47 = load i8, ptr %8, align 1
  %48 = trunc i8 %47 to i1
  br i1 %48, label %54, label %49

49:                                               ; preds = %44
  %50 = load ptr, ptr %5, align 8
  %51 = getelementptr inbounds %"class.casadi::Slice", ptr %11, i32 0, i32 1
  %52 = load i64, ptr %51, align 8
  %53 = call noundef nonnull align 8 dereferenceable(8) ptr @_ZNSolsEx(ptr noundef nonnull align 8 dereferenceable(8) %50, i64 noundef %52)
  br label %54

54:                                               ; preds = %49, %44
  %55 = load i8, ptr %9, align 1
  %56 = trunc i8 %55 to i1
  br i1 %56, label %63, label %57

57:                                               ; preds = %54
  %58 = load ptr, ptr %5, align 8
  %59 = call noundef nonnull align 8 dereferenceable(8) ptr @_ZStlsISt11char_traitsIcEERSt13basic_ostreamIcT_ES5_PKc(ptr noundef nonnull align 8 dereferenceable(8) %58, ptr noundef @.str.22)
  %60 = getelementptr inbounds %"class.casadi::Slice", ptr %11, i32 0, i32 2
  %61 = load i64, ptr %60, align 8
  %62 = call noundef nonnull align 8 dereferenceable(8) ptr @_ZNSolsEx(ptr noundef nonnull align 8 dereferenceable(8) %59, i64 noundef %61)
  br label %63

63:                                               ; preds = %57, %54
  br label %64

64:                                               ; preds = %63, %31
  ret void
}