; Function Attrs: mustprogress uwtable
define void @_ZNK6casadi5Slice4dispERSob(ptr nocapture noundef nonnull readonly align 8 dereferenceable(24) %0, ptr noundef nonnull align 8 dereferenceable(8) %1, i1 noundef zeroext %2) local_unnamed_addr #4 align 2 {
  %4 = load i64, ptr %0, align 8
  %5 = getelementptr inbounds i8, ptr %0, i64 8
  %6 = load i64, ptr %5, align 8
  %7 = icmp eq i64 %6, 9223372036854775807
  %8 = getelementptr inbounds i8, ptr %0, i64 16
  %9 = load i64, ptr %8, align 8
  %10 = icmp eq i64 %9, 1
  %11 = add nsw i64 %4, 1
  %12 = icmp eq i64 %6, %11
  br i1 %12, label %13, label %15

13:                                               ; preds = %3
  %14 = tail call noundef nonnull align 8 dereferenceable(8) ptr @_ZNSolsEx(ptr noundef nonnull align 8 dereferenceable(8) %1, i64 noundef %4)
  br label %29

15:                                               ; preds = %3
  %16 = icmp eq i64 %4, 0
  br i1 %16, label %19, label %17

17:                                               ; preds = %15
  %18 = tail call noundef nonnull align 8 dereferenceable(8) ptr @_ZNSolsEx(ptr noundef nonnull align 8 dereferenceable(8) %1, i64 noundef %4)
  br label %19

19:                                               ; preds = %17, %15
  %20 = tail call noundef nonnull align 8 dereferenceable(8) ptr @_ZStlsISt11char_traitsIcEERSt13basic_ostreamIcT_ES5_PKc(ptr noundef nonnull align 8 dereferenceable(8) %1, ptr noundef nonnull @.str.22)
  br i1 %7, label %24, label %21

21:                                               ; preds = %19
  %22 = load i64, ptr %5, align 8
  %23 = tail call noundef nonnull align 8 dereferenceable(8) ptr @_ZNSolsEx(ptr noundef nonnull align 8 dereferenceable(8) %1, i64 noundef %22)
  br label %24

24:                                               ; preds = %21, %19
  br i1 %10, label %29, label %25

25:                                               ; preds = %24
  %26 = tail call noundef nonnull align 8 dereferenceable(8) ptr @_ZStlsISt11char_traitsIcEERSt13basic_ostreamIcT_ES5_PKc(ptr noundef nonnull align 8 dereferenceable(8) %1, ptr noundef nonnull @.str.22)
  %27 = load i64, ptr %8, align 8
  %28 = tail call noundef nonnull align 8 dereferenceable(8) ptr @_ZNSolsEx(ptr noundef nonnull align 8 dereferenceable(8) %26, i64 noundef %27)
  br label %29

29:                                               ; preds = %24, %25, %13
  ret void
}